; Function Attrs: nounwind uwtable
define dso_local ptr @PyWrapper_New(ptr noundef %0, ptr noundef %1) local_unnamed_addr #0 {
  %3 = tail call ptr @_PyObject_GC_New(ptr noundef nonnull @_PyMethodWrapper_Type) #9
  %.not = icmp eq ptr %3, null
  br i1 %.not, label %38, label %4

4:                                                ; preds = %2
  %5 = load i32, ptr %0, align 8, !tbaa !16
  %6 = icmp slt i32 %5, 0
  br i1 %6, label %_Py_NewRef.exit, label %7

7:                                                ; preds = %4
  %8 = add nuw i32 %5, 1
  store i32 %8, ptr %0, align 8, !tbaa !16
  br label %_Py_NewRef.exit

_Py_NewRef.exit:                                  ; preds = %4, %7
  %9 = getelementptr inbounds nuw i8, ptr %3, i64 16
  store ptr %0, ptr %9, align 8, !tbaa !60
  %10 = load i32, ptr %1, align 8, !tbaa !16
  %11 = icmp slt i32 %10, 0
  br i1 %11, label %_Py_NewRef.exit8, label %12

12:                                               ; preds = %_Py_NewRef.exit
  %13 = add nuw i32 %10, 1
  store i32 %13, ptr %1, align 8, !tbaa !16
  br label %_Py_NewRef.exit8

_Py_NewRef.exit8:                                 ; preds = %_Py_NewRef.exit, %12
  %14 = getelementptr inbounds nuw i8, ptr %3, i64 24
  store ptr %1, ptr %14, align 8, !tbaa !62
  %15 = getelementptr i8, ptr %3, i64 -16
  %16 = tail call align 8 ptr @llvm.threadlocal.address.p0(ptr align 8 @_Py_tss_tstate)
  %17 = load ptr, ptr %16, align 8, !tbaa !63
  %18 = getelementptr inbounds nuw i8, ptr %17, i64 16
  %19 = load ptr, ptr %18, align 8, !tbaa !65
  %20 = getelementptr inbounds nuw i8, ptr %19, i64 7424
  %21 = getelementptr inbounds nuw i8, ptr %19, i64 7432
  %22 = load i64, ptr %21, align 8, !tbaa !4
  %23 = inttoptr i64 %22 to ptr
  %24 = ptrtoint ptr %15 to i64
  %25 = load i64, ptr %23, align 8, !tbaa !9
  %26 = and i64 %25, 3
  %27 = or i64 %26, %24
  store i64 %27, ptr %23, align 8, !tbaa !9
  %28 = getelementptr i8, ptr %3, i64 -8
  %29 = load i64, ptr %28, align 8, !tbaa !4
  %30 = and i64 %29, 3
  %31 = or i64 %30, %22
  store i64 %31, ptr %28, align 8, !tbaa !4
  %32 = getelementptr inbounds nuw i8, ptr %19, i64 7632
  %33 = load i32, ptr %32, align 8, !tbaa !74
  %34 = xor i32 %33, 1
  %35 = sext i32 %34 to i64
  %36 = ptrtoint ptr %20 to i64
  %37 = or i64 %35, %36
  store i64 %37, ptr %15, align 8, !tbaa !9
  store i64 %24, ptr %21, align 8, !tbaa !4
  br label %38

38:                                               ; preds = %_Py_NewRef.exit8, %2
  ret ptr %3
}